; Function Attrs: nounwind uwtable
define dso_local noundef i64 @multirange_constructor1(ptr noundef readonly captures(none) %0) local_unnamed_addr #0 {
  %2 = alloca ptr, align 8
  %3 = load ptr, ptr %0, align 8
  %4 = tail call i32 @get_fn_expr_rettype(ptr noundef %3) #11
  call void @llvm.lifetime.start.p0(i64 8, ptr nonnull %2) #11
  %5 = load ptr, ptr %0, align 8
  %6 = getelementptr inbounds nuw i8, ptr %5, i64 24
  %7 = load ptr, ptr %6, align 8
  %8 = icmp eq ptr %7, null
  br i1 %8, label %11, label %9

9:                                                ; preds = %1
  %10 = load i32, ptr %7, align 8
  %.not.i = icmp eq i32 %10, %4
  br i1 %.not.i, label %multirange_get_typcache.exit, label %11

11:                                               ; preds = %9, %1
  %12 = tail call ptr @lookup_type_cache(i32 noundef %4, i32 noundef 65536) #11
  %13 = getelementptr inbounds nuw i8, ptr %12, i64 440
  %14 = load ptr, ptr %13, align 8
  %15 = icmp eq ptr %14, null
  br i1 %15, label %16, label %19

16:                                               ; preds = %11
  %17 = tail call zeroext i1 @errstart_cold(i32 noundef 21, ptr noundef null) #13
  tail call void @llvm.assume(i1 %17)
  %18 = tail call i32 (ptr, ...) @errmsg_internal(ptr noundef nonnull @.str.9, i32 noundef %4) #11
  tail call void @errfinish(ptr noundef nonnull @.str.2, i32 noundef 557, ptr noundef nonnull @__func__.multirange_get_typcache) #11
  unreachable

19:                                               ; preds = %11
  %20 = load ptr, ptr %0, align 8
  %21 = getelementptr inbounds nuw i8, ptr %20, i64 24
  store ptr %12, ptr %21, align 8
  br label %multirange_get_typcache.exit

multirange_get_typcache.exit:                     ; preds = %9, %19
  %.0.i = phi ptr [ %12, %19 ], [ %7, %9 ]
  %22 = getelementptr inbounds nuw i8, ptr %.0.i, i64 440
  %23 = load ptr, ptr %22, align 8
  %24 = getelementptr inbounds nuw i8, ptr %0, i64 40
  %25 = load i8, ptr %24, align 8, !range !22, !noundef !23
  %26 = trunc nuw i8 %25 to i1
  br i1 %26, label %27, label %30

27:                                               ; preds = %multirange_get_typcache.exit
  %28 = tail call zeroext i1 @errstart_cold(i32 noundef 21, ptr noundef null) #13
  tail call void @llvm.assume(i1 %28)
  %29 = tail call i32 (ptr, ...) @errmsg_internal(ptr noundef nonnull @.str.10) #11
  tail call void @errfinish(ptr noundef nonnull @.str.2, i32 noundef 1041, ptr noundef nonnull @__func__.multirange_constructor1) #11
  unreachable

30:                                               ; preds = %multirange_get_typcache.exit
  %31 = getelementptr inbounds nuw i8, ptr %0, i64 32
  %32 = load i64, ptr %31, align 8
  %33 = inttoptr i64 %32 to ptr
  %34 = tail call ptr @pg_detoast_datum(ptr noundef %33) #11
  store ptr %34, ptr %2, align 8
  %35 = getelementptr inbounds nuw i8, ptr %34, i64 4
  %36 = load i32, ptr %35, align 4
  %37 = load i32, ptr %23, align 8
  %.not = icmp eq i32 %36, %37
  br i1 %.not, label %41, label %38

38:                                               ; preds = %30
  %39 = tail call zeroext i1 @errstart_cold(i32 noundef 21, ptr noundef null) #13
  tail call void @llvm.assume(i1 %39)
  %40 = tail call i32 (ptr, ...) @errmsg_internal(ptr noundef nonnull @.str.12, i32 noundef %36) #11
  tail call void @errfinish(ptr noundef nonnull @.str.2, i32 noundef 1048, ptr noundef nonnull @__func__.multirange_constructor1) #11
  unreachable

41:                                               ; preds = %30
  %42 = call ptr @make_multirange(i32 noundef %4, ptr noundef nonnull %23, i32 noundef 1, ptr noundef nonnull %2)
  %43 = ptrtoint ptr %42 to i64
  call void @llvm.lifetime.end.p0(i64 8, ptr nonnull %2) #11
  ret i64 %43
}